target datalayout = "e-m:e-p270:32:32-p271:32:32-p272:64:64-i64:64-i128:128-f80:128-n8:16:32:64-S128"
target triple = "x86_64-pc-linux-gnu"

; Function Attrs: nounwind uwtable
define void @vectors_mult_additionf(i32 noundef %0, ptr noundef %1, float noundef %2, ptr noundef %3) #0 {
  %5 = alloca i32, align 4
  %6 = alloca ptr, align 8
  %7 = alloca float, align 4
  %8 = alloca ptr, align 8
  %9 = alloca i32, align 4
  store i32 %0, ptr %5, align 4, !tbaa !8
  store ptr %1, ptr %6, align 8, !tbaa !40
  store float %2, ptr %7, align 4, !tbaa !43
  store ptr %3, ptr %8, align 8, !tbaa !40
  call void @llvm.lifetime.start.p0(i64 4, ptr %9) #8
  store i32 0, ptr %9, align 4, !tbaa !8
  br label %10

10:                                               ; preds = %31, %4
  %11 = load i32, ptr %9, align 4, !tbaa !8
  %12 = load i32, ptr %5, align 4, !tbaa !8
  %13 = icmp slt i32 %11, %12
  br i1 %13, label %14, label %34

14:                                               ; preds = %10
  %15 = load ptr, ptr %6, align 8, !tbaa !40
  %16 = load i32, ptr %9, align 4, !tbaa !8
  %17 = sext i32 %16 to i64
  %18 = getelementptr inbounds float, ptr %15, i64 %17
  %19 = load float, ptr %18, align 4, !tbaa !43
  %20 = load float, ptr %7, align 4, !tbaa !43
  %21 = load ptr, ptr %8, align 8, !tbaa !40
  %22 = load i32, ptr %9, align 4, !tbaa !8
  %23 = sext i32 %22 to i64
  %24 = getelementptr inbounds float, ptr %21, i64 %23
  %25 = load float, ptr %24, align 4, !tbaa !43
  %26 = call float @llvm.fmuladd.f32(float %20, float %25, float %19)
  %27 = load ptr, ptr %6, align 8, !tbaa !40
  %28 = load i32, ptr %9, align 4, !tbaa !8
  %29 = sext i32 %28 to i64
  %30 = getelementptr inbounds float, ptr %27, i64 %29
  store float %26, ptr %30, align 4, !tbaa !43
  br label %31

31:                                               ; preds = %14
  %32 = load i32, ptr %9, align 4, !tbaa !8
  %33 = add nsw i32 %32, 1
  store i32 %33, ptr %9, align 4, !tbaa !8
  br label %10, !llvm.loop !83

34:                                               ; preds = %10
  call void @llvm.lifetime.end.p0(i64 4, ptr %9) #8
  ret void
}